; Function Attrs: mustprogress nofree norecurse nosync nounwind willreturn memory(read, inaccessiblemem: none) uwtable
define noundef i32 @_ZNK11OpenImageIO6v3_1_08DeepData7samplesEl(ptr noundef nonnull readonly align 8 captures(none) dereferenceable(20) %0, i64 noundef %1) local_unnamed_addr #12 align 2 {
  %3 = icmp sgt i64 %1, -1
  %4 = getelementptr inbounds nuw i8, ptr %0, i64 8
  %5 = load i64, ptr %4, align 8
  %.not = icmp slt i64 %1, %5
  %or.cond = select i1 %3, i1 %.not, i1 false
  br i1 %or.cond, label %6, label %12

6:                                                ; preds = %2
  %7 = load ptr, ptr %0, align 8, !tbaa !35
  %8 = getelementptr inbounds nuw i8, ptr %7, i64 72
  %9 = load ptr, ptr %8, align 8, !tbaa !54
  %10 = getelementptr inbounds nuw i32, ptr %9, i64 %1
  %11 = load i32, ptr %10, align 4, !tbaa !85
  br label %12

12:                                               ; preds = %2, %6
  %.0 = phi i32 [ %11, %6 ], [ 0, %2 ]
  ret i32 %.0
}